target datalayout = "e-m:e-p270:32:32-p271:32:32-p272:64:64-i64:64-i128:128-f80:128-n8:16:32:64-S128"
target triple = "x86_64-pc-linux-gnu"

%struct.prov_siv_ctx_st = type { i32, i8, i64, i64, %struct.siv128_context, ptr, ptr, ptr, ptr }
%struct.siv128_context = type { %union.siv_block_u, %union.siv_block_u, ptr, ptr, ptr, i32, i32 }
%union.siv_block_u = type { [2 x i64] }

; Function Attrs: nounwind uwtable
define internal i32 @aes_siv_cipher(ptr noundef %0, ptr noundef %1, ptr noundef %2, i64 noundef %3) #0 {
  %5 = alloca i32, align 4
  %6 = alloca ptr, align 8
  %7 = alloca ptr, align 8
  %8 = alloca ptr, align 8
  %9 = alloca i64, align 8
  %10 = alloca ptr, align 8
  %11 = alloca ptr, align 8
  %12 = alloca i32, align 4
  store ptr %0, ptr %6, align 8, !tbaa !7
  store ptr %1, ptr %7, align 8, !tbaa !9
  store ptr %2, ptr %8, align 8, !tbaa !9
  store i64 %3, ptr %9, align 8, !tbaa !3
  call void @llvm.lifetime.start.p0(i64 8, ptr %10) #4
  %13 = load ptr, ptr %6, align 8, !tbaa !7
  store ptr %13, ptr %10, align 8, !tbaa !11
  call void @llvm.lifetime.start.p0(i64 8, ptr %11) #4
  %14 = load ptr, ptr %10, align 8, !tbaa !11
  %15 = getelementptr inbounds nuw %struct.prov_siv_ctx_st, ptr %14, i32 0, i32 4
  store ptr %15, ptr %11, align 8, !tbaa !13
  %16 = load ptr, ptr %8, align 8, !tbaa !9
  %17 = icmp eq ptr %16, null
  br i1 %17, label %18, label %23

18:                                               ; preds = %4
  %19 = load ptr, ptr %11, align 8, !tbaa !13
  %20 = call i32 @ossl_siv128_finish(ptr noundef %19)
  %21 = icmp eq i32 %20, 0
  %22 = zext i1 %21 to i32
  store i32 %22, ptr %5, align 4
  store i32 1, ptr %12, align 4
  br label %56

23:                                               ; preds = %4
  %24 = load ptr, ptr %7, align 8, !tbaa !9
  %25 = icmp eq ptr %24, null
  br i1 %25, label %26, label %33

26:                                               ; preds = %23
  %27 = load ptr, ptr %11, align 8, !tbaa !13
  %28 = load ptr, ptr %8, align 8, !tbaa !9
  %29 = load i64, ptr %9, align 8, !tbaa !3
  %30 = call i32 @ossl_siv128_aad(ptr noundef %27, ptr noundef %28, i64 noundef %29)
  %31 = icmp eq i32 %30, 1
  %32 = zext i1 %31 to i32
  store i32 %32, ptr %5, align 4
  store i32 1, ptr %12, align 4
  br label %56

33:                                               ; preds = %23
  %34 = load ptr, ptr %10, align 8, !tbaa !11
  %35 = getelementptr inbounds nuw %struct.prov_siv_ctx_st, ptr %34, i32 0, i32 1
  %36 = load i8, ptr %35, align 4
  %37 = and i8 %36, 1
  %38 = zext i8 %37 to i32
  %39 = icmp ne i32 %38, 0
  br i1 %39, label %40, label %48

40:                                               ; preds = %33
  %41 = load ptr, ptr %11, align 8, !tbaa !13
  %42 = load ptr, ptr %8, align 8, !tbaa !9
  %43 = load ptr, ptr %7, align 8, !tbaa !9
  %44 = load i64, ptr %9, align 8, !tbaa !3
  %45 = call i32 @ossl_siv128_encrypt(ptr noundef %41, ptr noundef %42, ptr noundef %43, i64 noundef %44)
  %46 = icmp sgt i32 %45, 0
  %47 = zext i1 %46 to i32
  store i32 %47, ptr %5, align 4
  store i32 1, ptr %12, align 4
  br label %56

48:                                               ; preds = %33
  %49 = load ptr, ptr %11, align 8, !tbaa !13
  %50 = load ptr, ptr %8, align 8, !tbaa !9
  %51 = load ptr, ptr %7, align 8, !tbaa !9
  %52 = load i64, ptr %9, align 8, !tbaa !3
  %53 = call i32 @ossl_siv128_decrypt(ptr noundef %49, ptr noundef %50, ptr noundef %51, i64 noundef %52)
  %54 = icmp sgt i32 %53, 0
  %55 = zext i1 %54 to i32
  store i32 %55, ptr %5, align 4
  store i32 1, ptr %12, align 4
  br label %56

56:                                               ; preds = %48, %40, %26, %18
  call void @llvm.lifetime.end.p0(i64 8, ptr %11) #4
  call void @llvm.lifetime.end.p0(i64 8, ptr %10) #4
  %57 = load i32, ptr %5, align 4
  ret i32 %57
}