; Function Attrs: nounwind uwtable
define internal range(i32 0, 2) i32 @aes_siv_cipher(ptr noundef %0, ptr noundef %1, ptr noundef %2, i64 noundef %3) #1 {
  %5 = getelementptr inbounds nuw i8, ptr %0, i64 24
  %6 = icmp eq ptr %2, null
  br i1 %6, label %7, label %10

7:                                                ; preds = %4
  %8 = tail call i32 @ossl_siv128_finish(ptr noundef nonnull %5) #5
  %9 = icmp eq i32 %8, 0
  br label %25

10:                                               ; preds = %4
  %11 = icmp eq ptr %1, null
  br i1 %11, label %12, label %15

12:                                               ; preds = %10
  %13 = tail call i32 @ossl_siv128_aad(ptr noundef nonnull %5, ptr noundef nonnull %2, i64 noundef %3) #5
  %14 = icmp eq i32 %13, 1
  br label %25

15:                                               ; preds = %10
  %16 = getelementptr inbounds nuw i8, ptr %0, i64 4
  %17 = load i8, ptr %16, align 4
  %18 = and i8 %17, 1
  %.not = icmp eq i8 %18, 0
  br i1 %.not, label %22, label %19

19:                                               ; preds = %15
  %20 = tail call i32 @ossl_siv128_encrypt(ptr noundef nonnull %5, ptr noundef nonnull %2, ptr noundef nonnull %1, i64 noundef %3) #5
  %21 = icmp sgt i32 %20, 0
  br label %25

22:                                               ; preds = %15
  %23 = tail call i32 @ossl_siv128_decrypt(ptr noundef nonnull %5, ptr noundef nonnull %2, ptr noundef nonnull %1, i64 noundef %3) #5
  %24 = icmp sgt i32 %23, 0
  br label %25

25:                                               ; preds = %22, %19, %12, %7
  %.0.in = phi i1 [ %9, %7 ], [ %14, %12 ], [ %21, %19 ], [ %24, %22 ]
  %.0 = zext i1 %.0.in to i32
  ret i32 %.0
}